; Function Attrs: nounwind uwtable
define ptr @l_Lean_Compiler_LCNF_normParam___at_Lean_Compiler_LCNF_Code_cse_goFunDecl___spec__2(i8 noundef zeroext %0, ptr noundef %1, ptr noundef %2, ptr noundef %3, ptr noundef %4, ptr noundef %5, ptr noundef %6, ptr noundef %7) local_unnamed_addr #1 {
  %9 = getelementptr inbounds nuw i8, ptr %1, i64 24
  %10 = load ptr, ptr %9, align 8, !tbaa !9
  %11 = ptrtoint ptr %10 to i64
  %12 = and i64 %11, 1
  %.not = icmp eq i64 %12, 0
  br i1 %.not, label %13, label %lean_inc.exit25

13:                                               ; preds = %8
  %.val.i = load i32, ptr %10, align 4, !tbaa !4
  %14 = icmp sgt i32 %.val.i, 0
  br i1 %14, label %15, label %17, !prof !11

15:                                               ; preds = %13
  %16 = add nuw i32 %.val.i, 1
  store i32 %16, ptr %10, align 4, !tbaa !4
  br label %lean_inc.exit25

17:                                               ; preds = %13
  %.not.i32 = icmp eq i32 %.val.i, 0
  br i1 %.not.i32, label %lean_inc.exit25, label %18

18:                                               ; preds = %17
  tail call void @lean_inc_ref_cold(ptr noundef nonnull %10) #4
  br label %lean_inc.exit25

lean_inc.exit25:                                  ; preds = %18, %17, %15, %8
  %19 = tail call ptr @lean_st_ref_get(ptr noundef %2, ptr noundef %7) #4
  %20 = getelementptr inbounds nuw i8, ptr %19, i64 8
  %21 = load ptr, ptr %20, align 8, !tbaa !9
  %22 = ptrtoint ptr %21 to i64
  %23 = and i64 %22, 1
  %.not42 = icmp eq i64 %23, 0
  br i1 %.not42, label %24, label %lean_inc.exit24

24:                                               ; preds = %lean_inc.exit25
  %.val.i33 = load i32, ptr %21, align 4, !tbaa !4
  %25 = icmp sgt i32 %.val.i33, 0
  br i1 %25, label %26, label %28, !prof !11

26:                                               ; preds = %24
  %27 = add nuw i32 %.val.i33, 1
  store i32 %27, ptr %21, align 4, !tbaa !4
  br label %lean_inc.exit24

28:                                               ; preds = %24
  %.not.i34 = icmp eq i32 %.val.i33, 0
  br i1 %.not.i34, label %lean_inc.exit24, label %29

29:                                               ; preds = %28
  tail call void @lean_inc_ref_cold(ptr noundef nonnull %21) #4
  br label %lean_inc.exit24

lean_inc.exit24:                                  ; preds = %29, %28, %26, %lean_inc.exit25
  %30 = getelementptr inbounds nuw i8, ptr %19, i64 16
  %31 = load ptr, ptr %30, align 8, !tbaa !9
  %32 = ptrtoint ptr %31 to i64
  %33 = and i64 %32, 1
  %.not43 = icmp eq i64 %33, 0
  br i1 %.not43, label %34, label %lean_inc.exit23

34:                                               ; preds = %lean_inc.exit24
  %.val.i36 = load i32, ptr %31, align 4, !tbaa !4
  %35 = icmp sgt i32 %.val.i36, 0
  br i1 %35, label %36, label %38, !prof !11

36:                                               ; preds = %34
  %37 = add nuw i32 %.val.i36, 1
  store i32 %37, ptr %31, align 4, !tbaa !4
  br label %lean_inc.exit23

38:                                               ; preds = %34
  %.not.i37 = icmp eq i32 %.val.i36, 0
  br i1 %.not.i37, label %lean_inc.exit23, label %39

39:                                               ; preds = %38
  tail call void @lean_inc_ref_cold(ptr noundef nonnull %31) #4
  br label %lean_inc.exit23

lean_inc.exit23:                                  ; preds = %39, %38, %36, %lean_inc.exit24
  %40 = ptrtoint ptr %19 to i64
  %41 = and i64 %40, 1
  %.not44 = icmp eq i64 %41, 0
  br i1 %.not44, label %42, label %lean_dec.exit27

42:                                               ; preds = %lean_inc.exit23
  %43 = load i32, ptr %19, align 4, !tbaa !4
  %44 = icmp sgt i32 %43, 1
  br i1 %44, label %45, label %47, !prof !11

45:                                               ; preds = %42
  %46 = add nsw i32 %43, -1
  store i32 %46, ptr %19, align 4, !tbaa !4
  br label %lean_dec.exit27

47:                                               ; preds = %42
  %.not.i = icmp eq i32 %43, 0
  br i1 %.not.i, label %lean_dec.exit27, label %48

48:                                               ; preds = %47
  tail call void @lean_dec_ref_cold(ptr noundef nonnull %19) #4
  br label %lean_dec.exit27

lean_dec.exit27:                                  ; preds = %48, %47, %45, %lean_inc.exit23
  %49 = getelementptr inbounds nuw i8, ptr %21, i64 16
  %50 = load ptr, ptr %49, align 8, !tbaa !9
  %51 = ptrtoint ptr %50 to i64
  %52 = and i64 %51, 1
  %.not45 = icmp eq i64 %52, 0
  br i1 %.not45, label %53, label %lean_inc.exit

53:                                               ; preds = %lean_dec.exit27
  %.val.i39 = load i32, ptr %50, align 4, !tbaa !4
  %54 = icmp sgt i32 %.val.i39, 0
  br i1 %54, label %55, label %57, !prof !11

55:                                               ; preds = %53
  %56 = add nuw i32 %.val.i39, 1
  store i32 %56, ptr %50, align 4, !tbaa !4
  br label %lean_inc.exit

57:                                               ; preds = %53
  %.not.i40 = icmp eq i32 %.val.i39, 0
  br i1 %.not.i40, label %lean_inc.exit, label %58

58:                                               ; preds = %57
  tail call void @lean_inc_ref_cold(ptr noundef nonnull %50) #4
  br label %lean_inc.exit

lean_inc.exit:                                    ; preds = %58, %57, %55, %lean_dec.exit27
  br i1 %.not42, label %59, label %lean_dec.exit26

59:                                               ; preds = %lean_inc.exit
  %60 = load i32, ptr %21, align 4, !tbaa !4
  %61 = icmp sgt i32 %60, 1
  br i1 %61, label %62, label %64, !prof !11

62:                                               ; preds = %59
  %63 = add nsw i32 %60, -1
  store i32 %63, ptr %21, align 4, !tbaa !4
  br label %lean_dec.exit26

64:                                               ; preds = %59
  %.not.i28 = icmp eq i32 %60, 0
  br i1 %.not.i28, label %lean_dec.exit26, label %65

65:                                               ; preds = %64
  tail call void @lean_dec_ref_cold(ptr noundef nonnull %21) #4
  br label %lean_dec.exit26

lean_dec.exit26:                                  ; preds = %65, %64, %62, %lean_inc.exit
  %66 = tail call ptr @l___private_Lean_Compiler_LCNF_CompilerM_0__Lean_Compiler_LCNF_normExprImp_go(ptr noundef %50, i8 noundef zeroext %0, ptr noundef %10) #4
  br i1 %.not45, label %67, label %lean_dec.exit

67:                                               ; preds = %lean_dec.exit26
  %68 = load i32, ptr %50, align 4, !tbaa !4
  %69 = icmp sgt i32 %68, 1
  br i1 %69, label %70, label %72, !prof !11

70:                                               ; preds = %67
  %71 = add nsw i32 %68, -1
  store i32 %71, ptr %50, align 4, !tbaa !4
  br label %lean_dec.exit

72:                                               ; preds = %67
  %.not.i30 = icmp eq i32 %68, 0
  br i1 %.not.i30, label %lean_dec.exit, label %73

73:                                               ; preds = %72
  tail call void @lean_dec_ref_cold(ptr noundef nonnull %50) #4
  br label %lean_dec.exit

lean_dec.exit:                                    ; preds = %73, %72, %70, %lean_dec.exit26
  %74 = tail call ptr @l___private_Lean_Compiler_LCNF_CompilerM_0__Lean_Compiler_LCNF_updateParamImp(ptr noundef nonnull %1, ptr noundef %66, ptr noundef %3, ptr noundef %4, ptr noundef %5, ptr noundef %6, ptr noundef %31) #4
  ret ptr %74
}